(lp0
(dp1
S'name'
p2
S'laws'
p3
sS'ids'
p4
(lp5
L1L
aL2L
aL3L
aL4L
aL5L
aL6L
aL7L
asa(dp6
g2
S'sections'
p7
sg4
(lp8
L1L
aL2L
aL3L
aL4L
aL5L
aL6L
aL7L
aL8L
aL9L
aL10L
aL11L
aL12L
aL13L
aL14L
aL15L
aL16L
aL17L
aL18L
aL19L
aL20L
aL21L
aL22L
aL23L
aL24L
aL25L
aL26L
aL27L
aL28L
aL29L
aL30L
aL31L
aL32L
aL33L
aL34L
aL35L
aL36L
aL37L
aL38L
aL39L
aL40L
asag1
ag6
ag1
ag6
ag1
ag6
ag1
ag6
ag1
ag6
ag1
ag6
ag1
ag6
ag1
ag6
ag1
ag6
a.